; Function Attrs: cold mustprogress nofree nounwind uwtable
define internal fastcc void @_ZL14yy_stack_printPaS_(ptr noundef nonnull readonly %0, ptr noundef nonnull readnone %1) unnamed_addr #3 {
  %3 = load ptr, ptr @stderr, align 8, !tbaa !10
  %4 = tail call i64 @fwrite(ptr nonnull @.str.16, i64 9, i64 1, ptr %3) #16
  %.not4 = icmp ugt ptr %0, %1
  br i1 %.not4, label %._crit_edge, label %.lr.ph

.lr.ph:                                           ; preds = %2, %.lr.ph
  %.05 = phi ptr [ %9, %.lr.ph ], [ %0, %2 ]
  %5 = load i8, ptr %.05, align 1, !tbaa !13
  %6 = sext i8 %5 to i32
  %7 = load ptr, ptr @stderr, align 8, !tbaa !10
  %8 = tail call i32 (ptr, ptr, ...) @fprintf(ptr noundef %7, ptr noundef nonnull @.str.17, i32 noundef %6) #17
  %9 = getelementptr inbounds nuw i8, ptr %.05, i64 1
  %.not = icmp ugt ptr %9, %1
  br i1 %.not, label %._crit_edge, label %.lr.ph, !llvm.loop !22

._crit_edge:                                      ; preds = %.lr.ph, %2
  %10 = load ptr, ptr @stderr, align 8, !tbaa !10
  %fputc = tail call i32 @fputc(i32 10, ptr %10)
  ret void
}